; Function Attrs: nounwind uwtable
define noalias nonnull ptr @l_Lean_instCoeBoolLeanOptionValue(i8 noundef zeroext %0) local_unnamed_addr #0 {
  tail call void @lean_inc_heartbeat() #5
  %2 = tail call noalias ptr @mi_malloc_small(i64 noundef 16) #5
  %3 = icmp eq ptr %2, null
  br i1 %3, label %4, label %lean_alloc_ctor.exit

4:                                                ; preds = %1
  tail call void @lean_internal_panic_out_of_memory() #6
  unreachable

lean_alloc_ctor.exit:                             ; preds = %1
  %5 = getelementptr inbounds nuw i8, ptr %2, i64 4
  %6 = getelementptr inbounds nuw i8, ptr %2, i64 8
  store i64 0, ptr %6, align 8, !tbaa !14
  store i32 1, ptr %2, align 4, !tbaa !4
  store i32 16777232, ptr %5, align 4
  store i8 %0, ptr %6, align 1, !tbaa !13
  ret ptr %2
}